; Function Attrs: nounwind uwtable
define ptr @l___private_Lean_Meta_Tactic_Backtrack_0__Lean_Meta_Tactic_Backtrack_Backtrack_run_match__1_splitter___rarg(ptr noundef %0, ptr noundef %1, ptr noundef %2) local_unnamed_addr #0 {
  %4 = ptrtoint ptr %0 to i64
  %5 = and i64 %4, 1
  %.not.i15 = icmp eq i64 %5, 0
  br i1 %.not.i15, label %9, label %6

6:                                                ; preds = %3
  %7 = lshr i64 %4, 1
  %8 = trunc i64 %7 to i32
  br label %lean_obj_tag.exit

9:                                                ; preds = %3
  %10 = getelementptr i8, ptr %0, i64 4
  %.val.i = load i32, ptr %10, align 4
  %11 = lshr i32 %.val.i, 24
  br label %lean_obj_tag.exit

lean_obj_tag.exit:                                ; preds = %6, %9
  %.0.i = phi i32 [ %8, %6 ], [ %11, %9 ]
  %12 = icmp eq i32 %.0.i, 0
  br i1 %12, label %13, label %31

13:                                               ; preds = %lean_obj_tag.exit
  %14 = ptrtoint ptr %2 to i64
  %15 = and i64 %14, 1
  %.not22 = icmp eq i64 %15, 0
  br i1 %.not22, label %16, label %lean_dec.exit12

16:                                               ; preds = %13
  %17 = load i32, ptr %2, align 4, !tbaa !4
  %18 = icmp sgt i32 %17, 1
  br i1 %18, label %19, label %21, !prof !9

19:                                               ; preds = %16
  %20 = add nsw i32 %17, -1
  store i32 %20, ptr %2, align 4, !tbaa !4
  br label %lean_dec.exit12

21:                                               ; preds = %16
  %.not.i = icmp eq i32 %17, 0
  br i1 %.not.i, label %lean_dec.exit12, label %22

22:                                               ; preds = %21
  tail call void @lean_dec_ref_cold(ptr noundef nonnull %2) #4
  br label %lean_dec.exit12

lean_dec.exit12:                                  ; preds = %22, %21, %19, %13
  %23 = ptrtoint ptr %1 to i64
  %24 = and i64 %23, 1
  %.not23 = icmp eq i64 %24, 0
  br i1 %.not23, label %25, label %lean_inc.exit11

25:                                               ; preds = %lean_dec.exit12
  %.val.i16 = load i32, ptr %1, align 4, !tbaa !4
  %26 = icmp sgt i32 %.val.i16, 0
  br i1 %26, label %27, label %29, !prof !9

27:                                               ; preds = %25
  %28 = add nuw i32 %.val.i16, 1
  store i32 %28, ptr %1, align 4, !tbaa !4
  br label %lean_inc.exit11

29:                                               ; preds = %25
  %.not.i17 = icmp eq i32 %.val.i16, 0
  br i1 %.not.i17, label %lean_inc.exit11, label %30

30:                                               ; preds = %29
  tail call void @lean_inc_ref_cold(ptr noundef nonnull %1) #4
  br label %lean_inc.exit11

31:                                               ; preds = %lean_obj_tag.exit
  %32 = getelementptr inbounds nuw i8, ptr %0, i64 8
  %33 = load ptr, ptr %32, align 8, !tbaa !10
  %34 = ptrtoint ptr %33 to i64
  %35 = and i64 %34, 1
  %.not = icmp eq i64 %35, 0
  br i1 %.not, label %36, label %lean_inc.exit

36:                                               ; preds = %31
  %.val.i18 = load i32, ptr %33, align 4, !tbaa !4
  %37 = icmp sgt i32 %.val.i18, 0
  br i1 %37, label %38, label %40, !prof !9

38:                                               ; preds = %36
  %39 = add nuw i32 %.val.i18, 1
  store i32 %39, ptr %33, align 4, !tbaa !4
  br label %lean_inc.exit

40:                                               ; preds = %36
  %.not.i19 = icmp eq i32 %.val.i18, 0
  br i1 %.not.i19, label %lean_inc.exit, label %41

41:                                               ; preds = %40
  tail call void @lean_inc_ref_cold(ptr noundef nonnull %33) #4
  br label %lean_inc.exit

lean_inc.exit:                                    ; preds = %41, %40, %38, %31
  br i1 %.not.i15, label %42, label %lean_dec.exit

42:                                               ; preds = %lean_inc.exit
  %43 = load i32, ptr %0, align 4, !tbaa !4
  %44 = icmp sgt i32 %43, 1
  br i1 %44, label %45, label %47, !prof !9

45:                                               ; preds = %42
  %46 = add nsw i32 %43, -1
  store i32 %46, ptr %0, align 4, !tbaa !4
  br label %lean_dec.exit

47:                                               ; preds = %42
  %.not.i13 = icmp eq i32 %43, 0
  br i1 %.not.i13, label %lean_dec.exit, label %48

48:                                               ; preds = %47
  tail call void @lean_dec_ref_cold(ptr noundef nonnull %0) #4
  br label %lean_dec.exit

lean_dec.exit:                                    ; preds = %48, %47, %45, %lean_inc.exit
  %49 = tail call ptr @lean_apply_1(ptr noundef %2, ptr noundef %33) #4
  br label %lean_inc.exit11

lean_inc.exit11:                                  ; preds = %lean_dec.exit12, %27, %29, %30, %lean_dec.exit
  %.0 = phi ptr [ %49, %lean_dec.exit ], [ %1, %30 ], [ %1, %29 ], [ %1, %27 ], [ %1, %lean_dec.exit12 ]
  ret ptr %.0
}